target datalayout = "e-m:e-p270:32:32-p271:32:32-p272:64:64-i64:64-i128:128-f80:128-n8:16:32:64-S128"
target triple = "x86_64-pc-linux-gnu"

%struct.TupleTableSlotOps = type { i64, ptr, ptr, ptr, ptr, ptr, ptr, ptr, ptr, ptr, ptr, ptr, ptr }
%struct.MaterialState = type { %struct.ScanState, i32, i8, ptr }
%struct.ScanState = type { %struct.PlanState, ptr, ptr, ptr }
%struct.PlanState = type { i32, ptr, ptr, ptr, ptr, ptr, ptr, ptr, ptr, ptr, ptr, ptr, ptr, ptr, ptr, ptr, ptr, ptr, i8, ptr, ptr, ptr, ptr, ptr, i8, i8, i8, i8, i8, i8, i8, i8 }
%struct.TupleTableSlot = type { i32, i16, i16, ptr, ptr, ptr, ptr, ptr, %struct.ItemPointerData, i32 }
%struct.ItemPointerData = type { %struct.BlockIdData, i16 }
%struct.BlockIdData = type { i16, i16 }

; Function Attrs: inlinehint nounwind uwtable
define internal ptr @ExecClearTuple(ptr noundef %0) #2 {
  %2 = alloca ptr, align 8
  store ptr %0, ptr %2, align 8
  %3 = load ptr, ptr %2, align 8
  %4 = getelementptr inbounds nuw %struct.TupleTableSlot, ptr %3, i32 0, i32 3
  %5 = load ptr, ptr %4, align 8
  %6 = getelementptr inbounds nuw %struct.TupleTableSlotOps, ptr %5, i32 0, i32 3
  %7 = load ptr, ptr %6, align 8
  %8 = load ptr, ptr %2, align 8
  call void %7(ptr noundef %8)
  %9 = load ptr, ptr %2, align 8
  ret ptr %9
}

; Function Attrs: nounwind uwtable
define dso_local void @ExecReScanMaterial(ptr noundef %0) #0 {
  %2 = alloca ptr, align 8
  %3 = alloca ptr, align 8
  %4 = alloca i32, align 4
  store ptr %0, ptr %2, align 8
  call void @llvm.lifetime.start.p0(i64 8, ptr %3) #5
  %5 = load ptr, ptr %2, align 8
  %6 = getelementptr inbounds nuw %struct.PlanState, ptr %5, i32 0, i32 9
  %7 = load ptr, ptr %6, align 8
  store ptr %7, ptr %3, align 8
  %8 = load ptr, ptr %2, align 8
  %9 = getelementptr inbounds nuw %struct.MaterialState, ptr %8, i32 0, i32 0
  %10 = getelementptr inbounds nuw %struct.ScanState, ptr %9, i32 0, i32 0
  %11 = getelementptr inbounds nuw %struct.PlanState, ptr %10, i32 0, i32 15
  %12 = load ptr, ptr %11, align 8
  %13 = call ptr @ExecClearTuple(ptr noundef %12)
  %14 = load ptr, ptr %2, align 8
  %15 = getelementptr inbounds nuw %struct.MaterialState, ptr %14, i32 0, i32 1
  %16 = load i32, ptr %15, align 8
  %17 = icmp ne i32 %16, 0
  br i1 %17, label %18, label %55

18:                                               ; preds = %1
  %19 = load ptr, ptr %2, align 8
  %20 = getelementptr inbounds nuw %struct.MaterialState, ptr %19, i32 0, i32 3
  %21 = load ptr, ptr %20, align 8
  %22 = icmp ne ptr %21, null
  br i1 %22, label %24, label %23

23:                                               ; preds = %18
  store i32 1, ptr %4, align 4
  br label %66

24:                                               ; preds = %18
  %25 = load ptr, ptr %3, align 8
  %26 = getelementptr inbounds nuw %struct.PlanState, ptr %25, i32 0, i32 13
  %27 = load ptr, ptr %26, align 8
  %28 = icmp ne ptr %27, null
  br i1 %28, label %35, label %29

29:                                               ; preds = %24
  %30 = load ptr, ptr %2, align 8
  %31 = getelementptr inbounds nuw %struct.MaterialState, ptr %30, i32 0, i32 1
  %32 = load i32, ptr %31, align 8
  %33 = and i32 %32, 4
  %34 = icmp eq i32 %33, 0
  br i1 %34, label %35, label %50

35:                                               ; preds = %29, %24
  %36 = load ptr, ptr %2, align 8
  %37 = getelementptr inbounds nuw %struct.MaterialState, ptr %36, i32 0, i32 3
  %38 = load ptr, ptr %37, align 8
  call void @tuplestore_end(ptr noundef %38)
  %39 = load ptr, ptr %2, align 8
  %40 = getelementptr inbounds nuw %struct.MaterialState, ptr %39, i32 0, i32 3
  store ptr null, ptr %40, align 8
  %41 = load ptr, ptr %3, align 8
  %42 = getelementptr inbounds nuw %struct.PlanState, ptr %41, i32 0, i32 13
  %43 = load ptr, ptr %42, align 8
  %44 = icmp eq ptr %43, null
  br i1 %44, label %45, label %47

45:                                               ; preds = %35
  %46 = load ptr, ptr %3, align 8
  call void @ExecReScan(ptr noundef %46)
  br label %47

47:                                               ; preds = %45, %35
  %48 = load ptr, ptr %2, align 8
  %49 = getelementptr inbounds nuw %struct.MaterialState, ptr %48, i32 0, i32 2
  store i8 0, ptr %49, align 4
  br label %54

50:                                               ; preds = %29
  %51 = load ptr, ptr %2, align 8
  %52 = getelementptr inbounds nuw %struct.MaterialState, ptr %51, i32 0, i32 3
  %53 = load ptr, ptr %52, align 8
  call void @tuplestore_rescan(ptr noundef %53)
  br label %54

54:                                               ; preds = %50, %47
  br label %65

55:                                               ; preds = %1
  %56 = load ptr, ptr %3, align 8
  %57 = getelementptr inbounds nuw %struct.PlanState, ptr %56, i32 0, i32 13
  %58 = load ptr, ptr %57, align 8
  %59 = icmp eq ptr %58, null
  br i1 %59, label %60, label %62

60:                                               ; preds = %55
  %61 = load ptr, ptr %3, align 8
  call void @ExecReScan(ptr noundef %61)
  br label %62

62:                                               ; preds = %60, %55
  %63 = load ptr, ptr %2, align 8
  %64 = getelementptr inbounds nuw %struct.MaterialState, ptr %63, i32 0, i32 2
  store i8 0, ptr %64, align 4
  br label %65

65:                                               ; preds = %62, %54
  store i32 0, ptr %4, align 4
  br label %66

66:                                               ; preds = %65, %23
  call void @llvm.lifetime.end.p0(i64 8, ptr %3) #5
  %67 = load i32, ptr %4, align 4
  switch i32 %67, label %69 [
    i32 0, label %68
    i32 1, label %68
  ]

68:                                               ; preds = %66, %66
  ret void

69:                                               ; preds = %66
  unreachable
}