; Function Attrs: nounwind uwtable
define dso_local void @ExecReScanMaterial(ptr noundef captures(none) %0) local_unnamed_addr #0 {
  %2 = getelementptr inbounds nuw i8, ptr %0, i64 72
  %3 = load ptr, ptr %2, align 8
  %4 = getelementptr inbounds nuw i8, ptr %0, i64 120
  %5 = load ptr, ptr %4, align 8
  %6 = getelementptr inbounds nuw i8, ptr %5, i64 8
  %7 = load ptr, ptr %6, align 8
  %8 = getelementptr inbounds nuw i8, ptr %7, i64 24
  %9 = load ptr, ptr %8, align 8
  tail call void %9(ptr noundef %5) #2
  %10 = getelementptr inbounds nuw i8, ptr %0, i64 224
  %11 = load i32, ptr %10, align 8
  %.not = icmp eq i32 %11, 0
  br i1 %.not, label %27, label %12

12:                                               ; preds = %1
  %13 = getelementptr inbounds nuw i8, ptr %0, i64 232
  %14 = load ptr, ptr %13, align 8
  %.not16 = icmp eq ptr %14, null
  br i1 %.not16, label %34, label %15

15:                                               ; preds = %12
  %16 = getelementptr inbounds nuw i8, ptr %3, i64 104
  %17 = load ptr, ptr %16, align 8
  %.not17 = icmp ne ptr %17, null
  %18 = and i32 %11, 4
  %19 = icmp eq i32 %18, 0
  %or.cond = or i1 %19, %.not17
  br i1 %or.cond, label %20, label %26

20:                                               ; preds = %15
  tail call void @tuplestore_end(ptr noundef nonnull %14) #2
  store ptr null, ptr %13, align 8
  %21 = load ptr, ptr %16, align 8
  %22 = icmp eq ptr %21, null
  br i1 %22, label %23, label %24

23:                                               ; preds = %20
  tail call void @ExecReScan(ptr noundef nonnull %3) #2
  br label %24

24:                                               ; preds = %23, %20
  %25 = getelementptr inbounds nuw i8, ptr %0, i64 228
  store i8 0, ptr %25, align 4
  br label %34

26:                                               ; preds = %15
  tail call void @tuplestore_rescan(ptr noundef nonnull %14) #2
  br label %34

27:                                               ; preds = %1
  %28 = getelementptr inbounds nuw i8, ptr %3, i64 104
  %29 = load ptr, ptr %28, align 8
  %30 = icmp eq ptr %29, null
  br i1 %30, label %31, label %32

31:                                               ; preds = %27
  tail call void @ExecReScan(ptr noundef nonnull %3) #2
  br label %32

32:                                               ; preds = %31, %27
  %33 = getelementptr inbounds nuw i8, ptr %0, i64 228
  store i8 0, ptr %33, align 4
  br label %34

34:                                               ; preds = %32, %26, %24, %12
  ret void
}